; Function Attrs: mustprogress nounwind uwtable
define dso_local void @_ZN5clang24SYCLUniqueStableNameExprC2ENS_14SourceLocationES1_S1_NS_8QualTypeEPNS_14TypeSourceInfoE(ptr noundef nonnull align 8 dereferenceable(40) %0, i32 %1, i32 %2, i32 %3, i64 %4, ptr noundef %5) unnamed_addr #1 align 2 {
  store i8 15, ptr %0, align 8
  %7 = load i8, ptr @_ZN5clang4Stmt17StatisticsEnabledE, align 1
  %8 = trunc i8 %7 to i1
  br i1 %8, label %9, label %_ZN5clang4ExprC2ENS_4Stmt9StmtClassENS_8QualTypeENS_13ExprValueKindENS_14ExprObjectKindE.exit

9:                                                ; preds = %6
  tail call void @_ZN5clang4Stmt12addStmtClassENS0_9StmtClassE(i32 noundef 15) #28
  br label %_ZN5clang4ExprC2ENS_4Stmt9StmtClassENS_8QualTypeENS_13ExprValueKindENS_14ExprObjectKindE.exit

_ZN5clang4ExprC2ENS_4Stmt9StmtClassENS_8QualTypeENS_13ExprValueKindENS_14ExprObjectKindE.exit: ; preds = %6, %9
  %10 = getelementptr inbounds nuw i8, ptr %0, i64 8
  %11 = getelementptr inbounds nuw i8, ptr %0, i64 1
  %12 = load i16, ptr %11, align 1
  %13 = and i16 %12, -1024
  store i16 %13, ptr %11, align 1
  store i64 %4, ptr %10, align 8
  %14 = getelementptr inbounds nuw i8, ptr %0, i64 16
  store i32 %1, ptr %14, align 8
  %15 = getelementptr inbounds nuw i8, ptr %0, i64 20
  store i32 %2, ptr %15, align 4
  %16 = getelementptr inbounds nuw i8, ptr %0, i64 24
  store i32 %3, ptr %16, align 8
  %17 = getelementptr inbounds nuw i8, ptr %0, i64 32
  store ptr %5, ptr %17, align 8
  %18 = tail call noundef zeroext i8 @_ZN5clang17computeDependenceEPNS_24SYCLUniqueStableNameExprE(ptr noundef nonnull %0) #28
  %19 = load i16, ptr %11, align 1
  %20 = and i8 %18, 31
  %21 = zext nneg i8 %20 to i16
  %22 = shl nuw nsw i16 %21, 5
  %23 = and i16 %19, -993
  %24 = or disjoint i16 %22, %23
  store i16 %24, ptr %11, align 1
  ret void
}